; Function Attrs: mustprogress uwtable
define internal void @_ZN32pxrInternal_v0_24__pxrReserved__12_GLOBAL__N_119_ExpandedDataSourceINS_10GfMatrix3dEE8GetValueEf(ptr dead_on_unwind noalias nocapture writable writeonly sret(%"class.pxrInternal_v0_24__pxrReserved__::VtValue") align 8 %0, ptr noundef nonnull align 8 dereferenceable(128) %1, float noundef %2) unnamed_addr #0 align 2 personality ptr @__gxx_personality_v0 {
  %4 = alloca %"class.pxrInternal_v0_24__pxrReserved__::VtArray.347", align 8
  call void @_ZN32pxrInternal_v0_24__pxrReserved__12_GLOBAL__N_119_ExpandedDataSourceINS_10GfMatrix3dEE13GetTypedValueEf(ptr dead_on_unwind nonnull writable sret(%"class.pxrInternal_v0_24__pxrReserved__::VtArray.347") align 8 %4, ptr noundef nonnull align 8 dereferenceable(128) %1, float noundef %2)
  %5 = getelementptr inbounds nuw i8, ptr %0, i64 8
  store ptr @_ZZN32pxrInternal_v0_24__pxrReserved__7VtValue11GetTypeInfoINS_7VtArrayINS_10GfMatrix3dEEEEENS_16TfPointerAndBitsIKNS0_9_TypeInfoEEEvE2ti, ptr %5, align 8
  %6 = invoke noalias noundef nonnull dereferenceable(48) ptr @_Znwm(i64 noundef 48) #18
          to label %.noexc unwind label %12

.noexc:                                           ; preds = %3
  invoke void @_ZN32pxrInternal_v0_24__pxrReserved__7VtArrayINS_10GfMatrix3dEEC1ERKS2_(ptr noundef nonnull align 8 dereferenceable(40) %6, ptr noundef nonnull align 8 dereferenceable(40) %4)
          to label %9 unwind label %7

7:                                                ; preds = %.noexc
  %8 = landingpad { ptr, i32 }
          cleanup
  call void @_ZdlPvm(ptr noundef nonnull %6, i64 noundef 48) #19
  br label %.body

9:                                                ; preds = %.noexc
  %10 = getelementptr inbounds nuw i8, ptr %6, i64 40
  store atomic i32 0, ptr %10 seq_cst, align 4
  store ptr %6, ptr %0, align 8
  %11 = atomicrmw add ptr %10, i32 1 monotonic, align 4
  call void @_ZN32pxrInternal_v0_24__pxrReserved__7VtArrayINS_10GfMatrix3dEED1Ev(ptr noundef nonnull align 8 dereferenceable(40) %4) #21
  ret void

12:                                               ; preds = %3
  %13 = landingpad { ptr, i32 }
          cleanup
  br label %.body

.body:                                            ; preds = %7, %12
  %eh.lpad-body = phi { ptr, i32 } [ %13, %12 ], [ %8, %7 ]
  call void @_ZN32pxrInternal_v0_24__pxrReserved__7VtArrayINS_10GfMatrix3dEED1Ev(ptr noundef nonnull align 8 dereferenceable(40) %4) #21
  resume { ptr, i32 } %eh.lpad-body
}